; ModuleID = 'probe1.bb758c83541167ac-cgu.0'
source_filename = "probe1.bb758c83541167ac-cgu.0"
target datalayout = "e-m:o-i64:64-i128:128-n32:64-S128"
target triple = "arm64-apple-macosx11.0.0"

%"core::fmt::rt::Argument<'_>" = type { %"core::fmt::rt::ArgumentType<'_>" }
%"core::fmt::rt::ArgumentType<'_>" = type { [1 x i64], ptr }

@alloc_8df0580a595a87d56789d20c7318e185 = private unnamed_addr constant <{ [166 x i8] }> <{ [166 x i8] c"unsafe precondition(s) violated: ptr::copy_nonoverlapping requires that both pointer arguments are aligned and non-null and the specified memory ranges do not overlap" }>, align 1
@alloc_fad0cd83b7d1858a846a172eb260e593 = private unnamed_addr constant <{ [42 x i8] }> <{ [42 x i8] c"is_aligned_to: align is not a power-of-two" }>, align 1
@alloc_041983ee8170efdaaf95ba67fd072d26 = private unnamed_addr constant <{ ptr, [8 x i8] }> <{ ptr @alloc_fad0cd83b7d1858a846a172eb260e593, [8 x i8] c"*\00\00\00\00\00\00\00" }>, align 8
@0 = private unnamed_addr constant <{ [8 x i8], [8 x i8] }> <{ [8 x i8] zeroinitializer, [8 x i8] undef }>, align 8
@alloc_97fb9151f1124c12c97ae1401d646f1d = private unnamed_addr constant <{ [81 x i8] }> <{ [81 x i8] c"/rustc/051478957371ee0084a7c0913941d2a8c4757bb9/library/core/src/ptr/const_ptr.rs" }>, align 1
@alloc_b93ebc201e5633c55c5ca8e09a9c752e = private unnamed_addr constant <{ ptr, [16 x i8] }> <{ ptr @alloc_97fb9151f1124c12c97ae1401d646f1d, [16 x i8] c"Q\00\00\00\00\00\00\00\86\06\00\00\0D\00\00\00" }>, align 8
@alloc_ffc44ed1670ebf78d81555edceff65f6 = private unnamed_addr constant <{ [69 x i8] }> <{ [69 x i8] c"unsafe precondition(s) violated: usize::unchecked_mul cannot overflow" }>, align 1
@alloc_d4d2a2a8539eafc62756407d946babb3 = private unnamed_addr constant <{ [110 x i8] }> <{ [110 x i8] c"unsafe precondition(s) violated: ptr::read_volatile requires that the pointer argument is aligned and non-null" }>, align 1
@alloc_20b3d155afd5c58c42e598b7e6d186ef = private unnamed_addr constant <{ [93 x i8] }> <{ [93 x i8] c"unsafe precondition(s) violated: NonNull::new_unchecked requires that the pointer is non-null" }>, align 1
@alloc_1f65c820ca68ae2f599734dcc2c915bc = private unnamed_addr constant <{ [80 x i8] }> <{ [80 x i8] c"/rustc/051478957371ee0084a7c0913941d2a8c4757bb9/library/core/src/alloc/layout.rs" }>, align 1
@alloc_312fbec039d269105e1e1b37557eaa16 = private unnamed_addr constant <{ ptr, [16 x i8] }> <{ ptr @alloc_1f65c820ca68ae2f599734dcc2c915bc, [16 x i8] c"P\00\00\00\00\00\00\00\C3\01\00\00)\00\00\00" }>, align 8
@alloc_763310d78c99c2c1ad3f8a9821e942f3 = private unnamed_addr constant <{ [61 x i8] }> <{ [61 x i8] c"is_nonoverlapping: `size_of::<T>() * count` overflows a usize" }>, align 1
@__rust_no_alloc_shim_is_unstable = external global i8
@alloc_b99730e73100e73a81f4fbfe74b3821d = private unnamed_addr constant <{ ptr, [8 x i8] }> <{ ptr inttoptr (i64 1 to ptr), [8 x i8] zeroinitializer }>, align 8
@alloc_53973d2fe29b4adba8bb7390b5678745 = private unnamed_addr constant <{ [8 x i8] }> zeroinitializer, align 8

; core::intrinsics::copy_nonoverlapping::precondition_check
; Function Attrs: inlinehint nounwind uwtable
define internal void @_ZN4core10intrinsics19copy_nonoverlapping18precondition_check17h0ab646d3162b250bE(ptr %src, ptr %dst, i64 %size, i64 %align, i64 %count) unnamed_addr #0 personality ptr @rust_eh_personality {
start:
  %0 = alloca [4 x i8], align 4
  %1 = alloca [4 x i8], align 4
  %_23 = alloca [48 x i8], align 8
  %_14 = alloca [48 x i8], align 8
  %_12 = ptrtoint ptr %src to i64
  %2 = icmp eq i64 %_12, 0
  br i1 %2, label %bb8, label %bb9

bb8:                                              ; preds = %start
  br label %bb6

bb9:                                              ; preds = %start
  %3 = call i64 @llvm.ctpop.i64(i64 %align)
  %4 = trunc i64 %3 to i32
  store i32 %4, ptr %1, align 4
  %_15 = load i32, ptr %1, align 4
  %5 = icmp eq i32 %_15, 1
  br i1 %5, label %bb10, label %bb11

bb6:                                              ; preds = %bb10, %bb8
  br label %bb7

bb10:                                             ; preds = %bb9
  %_19 = sub i64 %align, 1
  %_18 = and i64 %_12, %_19
  %_6 = icmp eq i64 %_18, 0
  br i1 %_6, label %bb1, label %bb6

bb11:                                             ; preds = %bb9
  store ptr @alloc_041983ee8170efdaaf95ba67fd072d26, ptr %_14, align 8
  %6 = getelementptr inbounds i8, ptr %_14, i64 8
  store i64 1, ptr %6, align 8
  %7 = load ptr, ptr @0, align 8
  %8 = load i64, ptr getelementptr inbounds (i8, ptr @0, i64 8), align 8
  %9 = getelementptr inbounds i8, ptr %_14, i64 32
  store ptr %7, ptr %9, align 8
  %10 = getelementptr inbounds i8, ptr %9, i64 8
  store i64 %8, ptr %10, align 8
  %11 = getelementptr inbounds i8, ptr %_14, i64 16
  store ptr inttoptr (i64 8 to ptr), ptr %11, align 8
  %12 = getelementptr inbounds i8, ptr %11, i64 8
  store i64 0, ptr %12, align 8
; invoke core::panicking::panic_fmt
  invoke void @_ZN4core9panicking9panic_fmt17hf3031f82c202a80dE(ptr align 8 %_14, ptr align 8 @alloc_b93ebc201e5633c55c5ca8e09a9c752e) #13
          to label %unreachable unwind label %terminate

bb1:                                              ; preds = %bb10
  %_21 = ptrtoint ptr %dst to i64
  %13 = icmp eq i64 %_21, 0
  br i1 %13, label %bb13, label %bb14

bb7:                                              ; preds = %bb4, %bb5, %bb6
; call core::panicking::panic_nounwind
  call void @_ZN4core9panicking14panic_nounwind17h0ca77474896e89daE(ptr align 1 @alloc_8df0580a595a87d56789d20c7318e185, i64 166) #14
  unreachable

bb13:                                             ; preds = %bb1
  br label %bb5

bb14:                                             ; preds = %bb1
  %14 = call i64 @llvm.ctpop.i64(i64 %align)
  %15 = trunc i64 %14 to i32
  store i32 %15, ptr %0, align 4
  %_24 = load i32, ptr %0, align 4
  %16 = icmp eq i32 %_24, 1
  br i1 %16, label %bb15, label %bb16

bb5:                                              ; preds = %bb15, %bb13
  br label %bb7

bb15:                                             ; preds = %bb14
  %_28 = sub i64 %align, 1
  %_27 = and i64 %_21, %_28
  %_7 = icmp eq i64 %_27, 0
  br i1 %_7, label %bb2, label %bb5

bb16:                                             ; preds = %bb14
  store ptr @alloc_041983ee8170efdaaf95ba67fd072d26, ptr %_23, align 8
  %17 = getelementptr inbounds i8, ptr %_23, i64 8
  store i64 1, ptr %17, align 8
  %18 = load ptr, ptr @0, align 8
  %19 = load i64, ptr getelementptr inbounds (i8, ptr @0, i64 8), align 8
  %20 = getelementptr inbounds i8, ptr %_23, i64 32
  store ptr %18, ptr %20, align 8
  %21 = getelementptr inbounds i8, ptr %20, i64 8
  store i64 %19, ptr %21, align 8
  %22 = getelementptr inbounds i8, ptr %_23, i64 16
  store ptr inttoptr (i64 8 to ptr), ptr %22, align 8
  %23 = getelementptr inbounds i8, ptr %22, i64 8
  store i64 0, ptr %23, align 8
; invoke core::panicking::panic_fmt
  invoke void @_ZN4core9panicking9panic_fmt17hf3031f82c202a80dE(ptr align 8 %_23, ptr align 8 @alloc_b93ebc201e5633c55c5ca8e09a9c752e) #13
          to label %unreachable unwind label %terminate

bb2:                                              ; preds = %bb15
; invoke core::ub_checks::is_nonoverlapping::runtime
  %_9 = invoke zeroext i1 @_ZN4core9ub_checks17is_nonoverlapping7runtime17h8d3477a667816d56E(ptr %src, ptr %dst, i64 %size, i64 %count)
          to label %bb18 unwind label %terminate

terminate:                                        ; preds = %bb11, %bb16, %bb2
  %24 = landingpad { ptr, i32 }
          filter [0 x ptr] zeroinitializer
  %25 = extractvalue { ptr, i32 } %24, 0
  %26 = extractvalue { ptr, i32 } %24, 1
; call core::panicking::panic_cannot_unwind
  call void @_ZN4core9panicking19panic_cannot_unwind17he766a33bd515ac66E() #15
  unreachable

bb18:                                             ; preds = %bb2
  br i1 %_9, label %bb3, label %bb4

bb4:                                              ; preds = %bb18
  br label %bb7

bb3:                                              ; preds = %bb18
  ret void

unreachable:                                      ; preds = %bb11, %bb16
  unreachable
}

; core::intrinsics::unlikely
; Function Attrs: nounwind uwtable
define internal zeroext i1 @_ZN4core10intrinsics8unlikely17h192fa84930518d6bE(i1 zeroext %b) unnamed_addr #1 {
start:
  ret i1 %b
}

; core::fmt::Arguments::new_v1
; Function Attrs: inlinehint uwtable
define void @_ZN4core3fmt9Arguments6new_v117h583112e2d7a964f5E(ptr sret([48 x i8]) align 8 %_0, ptr align 8 %pieces, ptr align 8 %args) unnamed_addr #2 {
start:
  store ptr %pieces, ptr %_0, align 8
  %0 = getelementptr inbounds i8, ptr %_0, i64 8
  store i64 1, ptr %0, align 8
  %1 = load ptr, ptr @0, align 8
  %2 = load i64, ptr getelementptr inbounds (i8, ptr @0, i64 8), align 8
  %3 = getelementptr inbounds i8, ptr %_0, i64 32
  store ptr %1, ptr %3, align 8
  %4 = getelementptr inbounds i8, ptr %3, i64 8
  store i64 %2, ptr %4, align 8
  %5 = getelementptr inbounds i8, ptr %_0, i64 16
  store ptr %args, ptr %5, align 8
  %6 = getelementptr inbounds i8, ptr %5, i64 8
  store i64 1, ptr %6, align 8
  ret void
}

; core::num::<impl usize>::unchecked_mul::precondition_check
; Function Attrs: inlinehint nounwind uwtable
define internal void @"_ZN4core3num23_$LT$impl$u20$usize$GT$13unchecked_mul18precondition_check17hed9b355769719d1aE"(i64 %lhs, i64 %rhs) unnamed_addr #0 {
start:
  %0 = call { i64, i1 } @llvm.umul.with.overflow.i64(i64 %lhs, i64 %rhs)
  %_6.0 = extractvalue { i64, i1 } %0, 0
  %_6.1 = extractvalue { i64, i1 } %0, 1
  br i1 %_6.1, label %bb1, label %bb2

bb2:                                              ; preds = %start
  ret void

bb1:                                              ; preds = %start
; call core::panicking::panic_nounwind
  call void @_ZN4core9panicking14panic_nounwind17h0ca77474896e89daE(ptr align 1 @alloc_ffc44ed1670ebf78d81555edceff65f6, i64 69) #14
  unreachable
}

; core::ops::function::FnOnce::call_once
; Function Attrs: inlinehint uwtable
define internal void @_ZN4core3ops8function6FnOnce9call_once17h4098726d995a0571E(ptr sret([24 x i8]) align 8 %_0, ptr align 1 %0, i64 %1) unnamed_addr #2 {
start:
  %_2 = alloca [16 x i8], align 8
  store ptr %0, ptr %_2, align 8
  %2 = getelementptr inbounds i8, ptr %_2, i64 8
  store i64 %1, ptr %2, align 8
  %3 = load ptr, ptr %_2, align 8
  %4 = getelementptr inbounds i8, ptr %_2, i64 8
  %5 = load i64, ptr %4, align 8
; call alloc::str::<impl alloc::borrow::ToOwned for str>::to_owned
  call void @"_ZN5alloc3str56_$LT$impl$u20$alloc..borrow..ToOwned$u20$for$u20$str$GT$8to_owned17he748fc769a90aa9fE"(ptr sret([24 x i8]) align 8 %_0, ptr align 1 %3, i64 %5)
  ret void
}

; core::ptr::read_volatile::precondition_check
; Function Attrs: inlinehint nounwind uwtable
define internal void @_ZN4core3ptr13read_volatile18precondition_check17h772d7433d1654687E(ptr %addr, i64 %align) unnamed_addr #0 personality ptr @rust_eh_personality {
start:
  %0 = alloca [4 x i8], align 4
  %_8 = alloca [48 x i8], align 8
  %_6 = ptrtoint ptr %addr to i64
  %1 = icmp eq i64 %_6, 0
  br i1 %1, label %bb3, label %bb4

bb3:                                              ; preds = %start
  br label %bb2

bb4:                                              ; preds = %start
  %2 = call i64 @llvm.ctpop.i64(i64 %align)
  %3 = trunc i64 %2 to i32
  store i32 %3, ptr %0, align 4
  %_9 = load i32, ptr %0, align 4
  %4 = icmp eq i32 %_9, 1
  br i1 %4, label %bb5, label %bb6

bb2:                                              ; preds = %bb5, %bb3
; call core::panicking::panic_nounwind
  call void @_ZN4core9panicking14panic_nounwind17h0ca77474896e89daE(ptr align 1 @alloc_d4d2a2a8539eafc62756407d946babb3, i64 110) #14
  unreachable

bb5:                                              ; preds = %bb4
  %_13 = sub i64 %align, 1
  %_12 = and i64 %_6, %_13
  %_3 = icmp eq i64 %_12, 0
  br i1 %_3, label %bb1, label %bb2

bb6:                                              ; preds = %bb4
  store ptr @alloc_041983ee8170efdaaf95ba67fd072d26, ptr %_8, align 8
  %5 = getelementptr inbounds i8, ptr %_8, i64 8
  store i64 1, ptr %5, align 8
  %6 = load ptr, ptr @0, align 8
  %7 = load i64, ptr getelementptr inbounds (i8, ptr @0, i64 8), align 8
  %8 = getelementptr inbounds i8, ptr %_8, i64 32
  store ptr %6, ptr %8, align 8
  %9 = getelementptr inbounds i8, ptr %8, i64 8
  store i64 %7, ptr %9, align 8
  %10 = getelementptr inbounds i8, ptr %_8, i64 16
  store ptr inttoptr (i64 8 to ptr), ptr %10, align 8
  %11 = getelementptr inbounds i8, ptr %10, i64 8
  store i64 0, ptr %11, align 8
; invoke core::panicking::panic_fmt
  invoke void @_ZN4core9panicking9panic_fmt17hf3031f82c202a80dE(ptr align 8 %_8, ptr align 8 @alloc_b93ebc201e5633c55c5ca8e09a9c752e) #13
          to label %unreachable unwind label %terminate

bb1:                                              ; preds = %bb5
  ret void

terminate:                                        ; preds = %bb6
  %12 = landingpad { ptr, i32 }
          filter [0 x ptr] zeroinitializer
  %13 = extractvalue { ptr, i32 } %12, 0
  %14 = extractvalue { ptr, i32 } %12, 1
; call core::panicking::panic_cannot_unwind
  call void @_ZN4core9panicking19panic_cannot_unwind17he766a33bd515ac66E() #15
  unreachable

unreachable:                                      ; preds = %bb6
  unreachable
}

; core::ptr::drop_in_place<alloc::string::String>
; Function Attrs: uwtable
define void @"_ZN4core3ptr42drop_in_place$LT$alloc..string..String$GT$17h8b000a7e7425fb26E"(ptr align 8 %_1) unnamed_addr #3 {
start:
; call core::ptr::drop_in_place<alloc::vec::Vec<u8>>
  call void @"_ZN4core3ptr46drop_in_place$LT$alloc..vec..Vec$LT$u8$GT$$GT$17h2a7cb44390beffafE"(ptr align 8 %_1)
  ret void
}

; core::ptr::drop_in_place<alloc::vec::Vec<u8>>
; Function Attrs: uwtable
define void @"_ZN4core3ptr46drop_in_place$LT$alloc..vec..Vec$LT$u8$GT$$GT$17h2a7cb44390beffafE"(ptr align 8 %_1) unnamed_addr #3 personality ptr @rust_eh_personality {
start:
  %0 = alloca [16 x i8], align 8
; invoke <alloc::vec::Vec<T,A> as core::ops::drop::Drop>::drop
  invoke void @"_ZN70_$LT$alloc..vec..Vec$LT$T$C$A$GT$$u20$as$u20$core..ops..drop..Drop$GT$4drop17h10f59343c94eb41aE"(ptr align 8 %_1)
          to label %bb4 unwind label %cleanup

bb3:                                              ; preds = %cleanup
; invoke core::ptr::drop_in_place<alloc::raw_vec::RawVec<u8>>
  invoke void @"_ZN4core3ptr53drop_in_place$LT$alloc..raw_vec..RawVec$LT$u8$GT$$GT$17hf9d045bca71c23baE"(ptr align 8 %_1) #16
          to label %bb1 unwind label %terminate

cleanup:                                          ; preds = %start
  %1 = landingpad { ptr, i32 }
          cleanup
  %2 = extractvalue { ptr, i32 } %1, 0
  %3 = extractvalue { ptr, i32 } %1, 1
  store ptr %2, ptr %0, align 8
  %4 = getelementptr inbounds i8, ptr %0, i64 8
  store i32 %3, ptr %4, align 8
  br label %bb3

bb4:                                              ; preds = %start
; call core::ptr::drop_in_place<alloc::raw_vec::RawVec<u8>>
  call void @"_ZN4core3ptr53drop_in_place$LT$alloc..raw_vec..RawVec$LT$u8$GT$$GT$17hf9d045bca71c23baE"(ptr align 8 %_1)
  ret void

terminate:                                        ; preds = %bb3
  %5 = landingpad { ptr, i32 }
          filter [0 x ptr] zeroinitializer
  %6 = extractvalue { ptr, i32 } %5, 0
  %7 = extractvalue { ptr, i32 } %5, 1
; call core::panicking::panic_in_cleanup
  call void @_ZN4core9panicking16panic_in_cleanup17h1ce87a78bfb0c4c7E() #15
  unreachable

bb1:                                              ; preds = %bb3
  %8 = load ptr, ptr %0, align 8
  %9 = getelementptr inbounds i8, ptr %0, i64 8
  %10 = load i32, ptr %9, align 8
  %11 = insertvalue { ptr, i32 } poison, ptr %8, 0
  %12 = insertvalue { ptr, i32 } %11, i32 %10, 1
  resume { ptr, i32 } %12
}

; core::ptr::drop_in_place<alloc::raw_vec::RawVec<u8>>
; Function Attrs: uwtable
define void @"_ZN4core3ptr53drop_in_place$LT$alloc..raw_vec..RawVec$LT$u8$GT$$GT$17hf9d045bca71c23baE"(ptr align 8 %_1) unnamed_addr #3 {
start:
; call <alloc::raw_vec::RawVec<T,A> as core::ops::drop::Drop>::drop
  call void @"_ZN77_$LT$alloc..raw_vec..RawVec$LT$T$C$A$GT$$u20$as$u20$core..ops..drop..Drop$GT$4drop17h219e23a947654b0cE"(ptr align 8 %_1)
  ret void
}

; core::ptr::non_null::NonNull<T>::new_unchecked::precondition_check
; Function Attrs: inlinehint nounwind uwtable
define internal void @"_ZN4core3ptr8non_null16NonNull$LT$T$GT$13new_unchecked18precondition_check17h28fa90557f891562E"(ptr %ptr) unnamed_addr #0 {
start:
  %_4 = ptrtoint ptr %ptr to i64
  %0 = icmp eq i64 %_4, 0
  br i1 %0, label %bb1, label %bb2

bb1:                                              ; preds = %start
; call core::panicking::panic_nounwind
  call void @_ZN4core9panicking14panic_nounwind17h0ca77474896e89daE(ptr align 1 @alloc_20b3d155afd5c58c42e598b7e6d186ef, i64 93) #14
  unreachable

bb2:                                              ; preds = %start
  ret void
}

; core::alloc::layout::Layout::array::inner
; Function Attrs: inlinehint uwtable
define internal { i64, i64 } @_ZN4core5alloc6layout6Layout5array5inner17h6f114e59bcac449fE(i64 %element_size, i64 %align, i64 %n) unnamed_addr #2 {
start:
  %_20 = alloca [8 x i8], align 8
  %_13 = alloca [8 x i8], align 8
  %_0 = alloca [16 x i8], align 8
  %0 = icmp eq i64 %element_size, 0
  br i1 %0, label %bb5, label %bb1

bb5:                                              ; preds = %bb4, %start
  br label %bb7

bb1:                                              ; preds = %start
  store i64 %align, ptr %_13, align 8
  %_14 = load i64, ptr %_13, align 8
  %_15 = icmp uge i64 %_14, 1
  %_16 = icmp ule i64 %_14, -9223372036854775808
  %_17 = and i1 %_15, %_16
  %_11 = sub i64 %_14, 1
  %_6 = sub i64 9223372036854775807, %_11
  %_7 = icmp eq i64 %element_size, 0
  br i1 %_7, label %panic, label %bb2

bb2:                                              ; preds = %bb1
  %_5 = udiv i64 %_6, %element_size
  %_4 = icmp ugt i64 %n, %_5
  br i1 %_4, label %bb3, label %bb4

panic:                                            ; preds = %bb1
; call core::panicking::panic_const::panic_const_div_by_zero
  call void @_ZN4core9panicking11panic_const23panic_const_div_by_zero17h6a572ca1aae6312bE(ptr align 8 @alloc_312fbec039d269105e1e1b37557eaa16) #13
  unreachable

bb4:                                              ; preds = %bb2
  br label %bb5

bb3:                                              ; preds = %bb2
  %1 = load i64, ptr @0, align 8
  %2 = load i64, ptr getelementptr inbounds (i8, ptr @0, i64 8), align 8
  store i64 %1, ptr %_0, align 8
  %3 = getelementptr inbounds i8, ptr %_0, i64 8
  store i64 %2, ptr %3, align 8
  br label %bb6

bb7:                                              ; preds = %bb5
; call core::num::<impl usize>::unchecked_mul::precondition_check
  call void @"_ZN4core3num23_$LT$impl$u20$usize$GT$13unchecked_mul18precondition_check17hed9b355769719d1aE"(i64 %element_size, i64 %n) #17
  br label %bb8

bb8:                                              ; preds = %bb7
  %array_size = mul nuw i64 %element_size, %n
  store i64 %align, ptr %_20, align 8
  %_21 = load i64, ptr %_20, align 8
  %_22 = icmp uge i64 %_21, 1
  %_23 = icmp ule i64 %_21, -9223372036854775808
  %_24 = and i1 %_22, %_23
  store i64 %_21, ptr %_0, align 8
  %4 = getelementptr inbounds i8, ptr %_0, i64 8
  store i64 %array_size, ptr %4, align 8
  br label %bb6

bb6:                                              ; preds = %bb3, %bb8
  %5 = load i64, ptr %_0, align 8
  %6 = getelementptr inbounds i8, ptr %_0, i64 8
  %7 = load i64, ptr %6, align 8
  %8 = insertvalue { i64, i64 } poison, i64 %5, 0
  %9 = insertvalue { i64, i64 } %8, i64 %7, 1
  ret { i64, i64 } %9
}

; core::alloc::layout::Layout::dangling
; Function Attrs: inlinehint uwtable
define internal ptr @_ZN4core5alloc6layout6Layout8dangling17hb75d3f9eb49b8165E(ptr align 8 %self) unnamed_addr #2 {
start:
  %_5 = alloca [8 x i8], align 8
  %self1 = load i64, ptr %self, align 8
  store i64 %self1, ptr %_5, align 8
  %_6 = load i64, ptr %_5, align 8
  %_7 = icmp uge i64 %_6, 1
  %_8 = icmp ule i64 %_6, -9223372036854775808
  %_9 = and i1 %_7, %_8
  %ptr = getelementptr i8, ptr null, i64 %_6
  br label %bb1

bb1:                                              ; preds = %start
; call core::ptr::non_null::NonNull<T>::new_unchecked::precondition_check
  call void @"_ZN4core3ptr8non_null16NonNull$LT$T$GT$13new_unchecked18precondition_check17h28fa90557f891562E"(ptr %ptr) #17
  br label %bb3

bb3:                                              ; preds = %bb1
  ret ptr %ptr
}

; core::option::Option<T>::map_or_else
; Function Attrs: inlinehint uwtable
define void @"_ZN4core6option15Option$LT$T$GT$11map_or_else17hbe60b94bc158e63bE"(ptr sret([24 x i8]) align 8 %_0, ptr align 1 %0, i64 %1, ptr align 8 %default) unnamed_addr #2 personality ptr @rust_eh_personality {
start:
  %2 = alloca [16 x i8], align 8
  %_10 = alloca [1 x i8], align 1
  %_9 = alloca [1 x i8], align 1
  %self = alloca [16 x i8], align 8
  store ptr %0, ptr %self, align 8
  %3 = getelementptr inbounds i8, ptr %self, i64 8
  store i64 %1, ptr %3, align 8
  store i8 1, ptr %_10, align 1
  store i8 1, ptr %_9, align 1
  %4 = load ptr, ptr %self, align 8
  %5 = ptrtoint ptr %4 to i64
  %6 = icmp eq i64 %5, 0
  %_4 = select i1 %6, i64 0, i64 1
  %7 = icmp eq i64 %_4, 0
  br i1 %7, label %bb2, label %bb3

bb2:                                              ; preds = %start
  store i8 0, ptr %_10, align 1
; invoke alloc::fmt::format::{{closure}}
  invoke void @"_ZN5alloc3fmt6format28_$u7b$$u7b$closure$u7d$$u7d$17h659af5ae3fc24b58E"(ptr sret([24 x i8]) align 8 %_0, ptr align 8 %default)
          to label %bb5 unwind label %cleanup

bb3:                                              ; preds = %start
  %t.0 = load ptr, ptr %self, align 8
  %8 = getelementptr inbounds i8, ptr %self, i64 8
  %t.1 = load i64, ptr %8, align 8
  store i8 0, ptr %_9, align 1
; invoke core::ops::function::FnOnce::call_once
  invoke void @_ZN4core3ops8function6FnOnce9call_once17h4098726d995a0571E(ptr sret([24 x i8]) align 8 %_0, ptr align 1 %t.0, i64 %t.1)
          to label %bb4 unwind label %cleanup

bb11:                                             ; preds = %cleanup
  %9 = load i8, ptr %_9, align 1
  %10 = trunc i8 %9 to i1
  br i1 %10, label %bb10, label %bb7

cleanup:                                          ; preds = %bb3, %bb2
  %11 = landingpad { ptr, i32 }
          cleanup
  %12 = extractvalue { ptr, i32 } %11, 0
  %13 = extractvalue { ptr, i32 } %11, 1
  store ptr %12, ptr %2, align 8
  %14 = getelementptr inbounds i8, ptr %2, i64 8
  store i32 %13, ptr %14, align 8
  br label %bb11

bb5:                                              ; preds = %bb2
  br label %bb6

bb6:                                              ; preds = %bb9, %bb4, %bb5
  ret void

bb4:                                              ; preds = %bb3
  %15 = load i8, ptr %_10, align 1
  %16 = trunc i8 %15 to i1
  br i1 %16, label %bb9, label %bb6

bb9:                                              ; preds = %bb4
  br label %bb6

bb7:                                              ; preds = %bb10, %bb11
  %17 = load i8, ptr %_10, align 1
  %18 = trunc i8 %17 to i1
  br i1 %18, label %bb12, label %bb8

bb10:                                             ; preds = %bb11
  br label %bb7

bb8:                                              ; preds = %bb12, %bb7
  %19 = load ptr, ptr %2, align 8
  %20 = getelementptr inbounds i8, ptr %2, i64 8
  %21 = load i32, ptr %20, align 8
  %22 = insertvalue { ptr, i32 } poison, ptr %19, 0
  %23 = insertvalue { ptr, i32 } %22, i32 %21, 1
  resume { ptr, i32 } %23

bb12:                                             ; preds = %bb7
  br label %bb8

bb1:                                              ; No predecessors!
  unreachable
}

; core::ub_checks::is_nonoverlapping::runtime
; Function Attrs: inlinehint uwtable
define internal zeroext i1 @_ZN4core9ub_checks17is_nonoverlapping7runtime17h8d3477a667816d56E(ptr %src, ptr %dst, i64 %size, i64 %count) unnamed_addr #2 {
start:
  %0 = alloca [1 x i8], align 1
  %diff = alloca [8 x i8], align 8
  %_9 = alloca [16 x i8], align 8
  %src_usize = ptrtoint ptr %src to i64
  %dst_usize = ptrtoint ptr %dst to i64
  %1 = call { i64, i1 } @llvm.umul.with.overflow.i64(i64 %size, i64 %count)
  %_15.0 = extractvalue { i64, i1 } %1, 0
  %_15.1 = extractvalue { i64, i1 } %1, 1
  %2 = call i1 @llvm.expect.i1(i1 %_15.1, i1 false)
  %3 = zext i1 %2 to i8
  store i8 %3, ptr %0, align 1
  %4 = load i8, ptr %0, align 1
  %_12 = trunc i8 %4 to i1
  br i1 %_12, label %bb2, label %bb3

bb3:                                              ; preds = %start
  %5 = getelementptr inbounds i8, ptr %_9, i64 8
  store i64 %_15.0, ptr %5, align 8
  store i64 1, ptr %_9, align 8
  %6 = getelementptr inbounds i8, ptr %_9, i64 8
  %size1 = load i64, ptr %6, align 8
  %_22 = icmp ult i64 %src_usize, %dst_usize
  br i1 %_22, label %bb4, label %bb5

bb2:                                              ; preds = %start
; call core::panicking::panic_nounwind
  call void @_ZN4core9panicking14panic_nounwind17h0ca77474896e89daE(ptr align 1 @alloc_763310d78c99c2c1ad3f8a9821e942f3, i64 61) #14
  unreachable

bb5:                                              ; preds = %bb3
  %7 = sub i64 %src_usize, %dst_usize
  store i64 %7, ptr %diff, align 8
  br label %bb6

bb4:                                              ; preds = %bb3
  %8 = sub i64 %dst_usize, %src_usize
  store i64 %8, ptr %diff, align 8
  br label %bb6

bb6:                                              ; preds = %bb4, %bb5
  %_11 = load i64, ptr %diff, align 8
  %_0 = icmp uge i64 %_11, %size1
  ret i1 %_0
}

; <T as alloc::slice::hack::ConvertVec>::to_vec
; Function Attrs: inlinehint uwtable
define void @"_ZN52_$LT$T$u20$as$u20$alloc..slice..hack..ConvertVec$GT$6to_vec17h9146e1af1edad2a6E"(ptr sret([24 x i8]) align 8 %_0, ptr align 1 %s.0, i64 %s.1) unnamed_addr #2 {
start:
  %_12 = alloca [24 x i8], align 8
  %v = alloca [24 x i8], align 8
; call alloc::raw_vec::RawVec<T,A>::try_allocate_in
  call void @"_ZN5alloc7raw_vec19RawVec$LT$T$C$A$GT$15try_allocate_in17hcf075816cf11f6b4E"(ptr sret([24 x i8]) align 8 %_12, i64 %s.1, i1 zeroext false)
  %_13 = load i64, ptr %_12, align 8
  %0 = icmp eq i64 %_13, 0
  br i1 %0, label %bb4, label %bb3

bb4:                                              ; preds = %start
  %1 = getelementptr inbounds i8, ptr %_12, i64 8
  %res.0 = load i64, ptr %1, align 8
  %2 = getelementptr inbounds i8, ptr %1, i64 8
  %res.1 = load ptr, ptr %2, align 8
  store i64 %res.0, ptr %v, align 8
  %3 = getelementptr inbounds i8, ptr %v, i64 8
  store ptr %res.1, ptr %3, align 8
  %4 = getelementptr inbounds i8, ptr %v, i64 16
  store i64 0, ptr %4, align 8
  %5 = getelementptr inbounds i8, ptr %v, i64 8
  %self = load ptr, ptr %5, align 8
  br label %bb5

bb3:                                              ; preds = %start
  %6 = getelementptr inbounds i8, ptr %_12, i64 8
  %err.0 = load i64, ptr %6, align 8
  %7 = getelementptr inbounds i8, ptr %6, i64 8
  %err.1 = load i64, ptr %7, align 8
; call alloc::raw_vec::handle_error
  call void @_ZN5alloc7raw_vec12handle_error17h7f9cd8199ddef69cE(i64 %err.0, i64 %err.1) #13
  unreachable

bb5:                                              ; preds = %bb4
; call core::intrinsics::copy_nonoverlapping::precondition_check
  call void @_ZN4core10intrinsics19copy_nonoverlapping18precondition_check17h0ab646d3162b250bE(ptr %s.0, ptr %self, i64 1, i64 1, i64 %s.1) #17
  br label %bb7

bb7:                                              ; preds = %bb5
  %8 = mul i64 %s.1, 1
  call void @llvm.memcpy.p0.p0.i64(ptr align 1 %self, ptr align 1 %s.0, i64 %8, i1 false)
  %9 = getelementptr inbounds i8, ptr %v, i64 16
  store i64 %s.1, ptr %9, align 8
  call void @llvm.memcpy.p0.p0.i64(ptr align 8 %_0, ptr align 8 %v, i64 24, i1 false)
  ret void

bb2:                                              ; No predecessors!
  unreachable
}

; alloc::fmt::format
; Function Attrs: inlinehint uwtable
define internal void @_ZN5alloc3fmt6format17h8581d2dc5b75d3bfE(ptr sret([24 x i8]) align 8 %_0, ptr align 8 %args) unnamed_addr #2 {
start:
  %_2 = alloca [16 x i8], align 8
  %_6.0 = load ptr, ptr %args, align 8
  %0 = getelementptr inbounds i8, ptr %args, i64 8
  %_6.1 = load i64, ptr %0, align 8
  %1 = getelementptr inbounds i8, ptr %args, i64 16
  %_7.0 = load ptr, ptr %1, align 8
  %2 = getelementptr inbounds i8, ptr %1, i64 8
  %_7.1 = load i64, ptr %2, align 8
  %3 = icmp eq i64 %_6.1, 0
  br i1 %3, label %bb4, label %bb5

bb4:                                              ; preds = %start
  %4 = icmp eq i64 %_7.1, 0
  br i1 %4, label %bb7, label %bb3

bb5:                                              ; preds = %start
  %5 = icmp eq i64 %_6.1, 1
  br i1 %5, label %bb6, label %bb3

bb7:                                              ; preds = %bb4
  store ptr inttoptr (i64 1 to ptr), ptr %_2, align 8
  %6 = getelementptr inbounds i8, ptr %_2, i64 8
  store i64 0, ptr %6, align 8
  br label %bb2

bb3:                                              ; preds = %bb6, %bb5, %bb4
  %7 = load ptr, ptr @0, align 8
  %8 = load i64, ptr getelementptr inbounds (i8, ptr @0, i64 8), align 8
  store ptr %7, ptr %_2, align 8
  %9 = getelementptr inbounds i8, ptr %_2, i64 8
  store i64 %8, ptr %9, align 8
  br label %bb2

bb2:                                              ; preds = %bb3, %bb8, %bb7
  %10 = load ptr, ptr %_2, align 8
  %11 = getelementptr inbounds i8, ptr %_2, i64 8
  %12 = load i64, ptr %11, align 8
; call core::option::Option<T>::map_or_else
  call void @"_ZN4core6option15Option$LT$T$GT$11map_or_else17hbe60b94bc158e63bE"(ptr sret([24 x i8]) align 8 %_0, ptr align 1 %10, i64 %12, ptr align 8 %args)
  ret void

bb6:                                              ; preds = %bb5
  %13 = icmp eq i64 %_7.1, 0
  br i1 %13, label %bb8, label %bb3

bb8:                                              ; preds = %bb6
  %s = getelementptr inbounds [0 x { ptr, i64 }], ptr %_6.0, i64 0, i64 0
  %14 = getelementptr inbounds [0 x { ptr, i64 }], ptr %_6.0, i64 0, i64 0
  %_13.0 = load ptr, ptr %14, align 8
  %15 = getelementptr inbounds i8, ptr %14, i64 8
  %_13.1 = load i64, ptr %15, align 8
  store ptr %_13.0, ptr %_2, align 8
  %16 = getelementptr inbounds i8, ptr %_2, i64 8
  store i64 %_13.1, ptr %16, align 8
  br label %bb2
}

; alloc::fmt::format::{{closure}}
; Function Attrs: inlinehint uwtable
define void @"_ZN5alloc3fmt6format28_$u7b$$u7b$closure$u7d$$u7d$17h659af5ae3fc24b58E"(ptr sret([24 x i8]) align 8 %_0, ptr align 8 %_1) unnamed_addr #2 {
start:
  %_2 = alloca [48 x i8], align 8
  call void @llvm.memcpy.p0.p0.i64(ptr align 8 %_2, ptr align 8 %_1, i64 48, i1 false)
; call alloc::fmt::format::format_inner
  call void @_ZN5alloc3fmt6format12format_inner17h457d6f4cc84042e9E(ptr sret([24 x i8]) align 8 %_0, ptr align 8 %_2)
  ret void
}

; alloc::str::<impl alloc::borrow::ToOwned for str>::to_owned
; Function Attrs: inlinehint uwtable
define internal void @"_ZN5alloc3str56_$LT$impl$u20$alloc..borrow..ToOwned$u20$for$u20$str$GT$8to_owned17he748fc769a90aa9fE"(ptr sret([24 x i8]) align 8 %_0, ptr align 1 %self.0, i64 %self.1) unnamed_addr #2 {
start:
  %bytes = alloca [24 x i8], align 8
; call <T as alloc::slice::hack::ConvertVec>::to_vec
  call void @"_ZN52_$LT$T$u20$as$u20$alloc..slice..hack..ConvertVec$GT$6to_vec17h9146e1af1edad2a6E"(ptr sret([24 x i8]) align 8 %bytes, ptr align 1 %self.0, i64 %self.1)
  call void @llvm.memcpy.p0.p0.i64(ptr align 8 %_0, ptr align 8 %bytes, i64 24, i1 false)
  ret void
}

; alloc::alloc::alloc
; Function Attrs: inlinehint uwtable
define internal ptr @_ZN5alloc5alloc5alloc17h5b64312333991dddE(i64 %0, i64 %1) unnamed_addr #2 {
start:
  %2 = alloca [1 x i8], align 1
  %_11 = alloca [8 x i8], align 8
  %layout = alloca [16 x i8], align 8
  store i64 %0, ptr %layout, align 8
  %3 = getelementptr inbounds i8, ptr %layout, i64 8
  store i64 %1, ptr %3, align 8
  br label %bb3

bb3:                                              ; preds = %start
; call core::ptr::read_volatile::precondition_check
  call void @_ZN4core3ptr13read_volatile18precondition_check17h772d7433d1654687E(ptr @__rust_no_alloc_shim_is_unstable, i64 1) #17
  br label %bb5

bb5:                                              ; preds = %bb3
  %4 = load volatile i8, ptr @__rust_no_alloc_shim_is_unstable, align 1
  store i8 %4, ptr %2, align 1
  %_2 = load i8, ptr %2, align 1
  %5 = getelementptr inbounds i8, ptr %layout, i64 8
  %_3 = load i64, ptr %5, align 8
  %self = load i64, ptr %layout, align 8
  store i64 %self, ptr %_11, align 8
  %_12 = load i64, ptr %_11, align 8
  %_13 = icmp uge i64 %_12, 1
  %_14 = icmp ule i64 %_12, -9223372036854775808
  %_15 = and i1 %_13, %_14
  %_0 = call ptr @__rust_alloc(i64 %_3, i64 %_12) #17
  ret ptr %_0
}

; alloc::alloc::Global::alloc_impl
; Function Attrs: inlinehint uwtable
define internal { ptr, i64 } @_ZN5alloc5alloc6Global10alloc_impl17hd49f39c4ed010c18E(ptr align 1 %self, i64 %0, i64 %1, i1 zeroext %zeroed) unnamed_addr #2 {
start:
  %_29 = alloca [8 x i8], align 8
  %self3 = alloca [8 x i8], align 8
  %self2 = alloca [8 x i8], align 8
  %_11 = alloca [8 x i8], align 8
  %layout1 = alloca [16 x i8], align 8
  %raw_ptr = alloca [8 x i8], align 8
  %_0 = alloca [16 x i8], align 8
  %layout = alloca [16 x i8], align 8
  store i64 %0, ptr %layout, align 8
  %2 = getelementptr inbounds i8, ptr %layout, i64 8
  store i64 %1, ptr %2, align 8
  %3 = getelementptr inbounds i8, ptr %layout, i64 8
  %size = load i64, ptr %3, align 8
  %4 = icmp eq i64 %size, 0
  br i1 %4, label %bb2, label %bb1

bb2:                                              ; preds = %start
; call core::alloc::layout::Layout::dangling
  %data = call ptr @_ZN4core5alloc6layout6Layout8dangling17hb75d3f9eb49b8165E(ptr align 8 %layout)
  br label %bb8

bb1:                                              ; preds = %start
  br i1 %zeroed, label %bb4, label %bb5

bb8:                                              ; preds = %bb2
; call core::ptr::non_null::NonNull<T>::new_unchecked::precondition_check
  call void @"_ZN4core3ptr8non_null16NonNull$LT$T$GT$13new_unchecked18precondition_check17h28fa90557f891562E"(ptr %data) #17
  br label %bb10

bb10:                                             ; preds = %bb8
  store ptr %data, ptr %_0, align 8
  %5 = getelementptr inbounds i8, ptr %_0, i64 8
  store i64 0, ptr %5, align 8
  br label %bb7

bb7:                                              ; preds = %bb18, %bb12, %bb10
  %6 = load ptr, ptr %_0, align 8
  %7 = getelementptr inbounds i8, ptr %_0, i64 8
  %8 = load i64, ptr %7, align 8
  %9 = insertvalue { ptr, i64 } poison, ptr %6, 0
  %10 = insertvalue { ptr, i64 } %9, i64 %8, 1
  ret { ptr, i64 } %10

bb5:                                              ; preds = %bb1
  %11 = load i64, ptr %layout, align 8
  %12 = getelementptr inbounds i8, ptr %layout, i64 8
  %13 = load i64, ptr %12, align 8
; call alloc::alloc::alloc
  %14 = call ptr @_ZN5alloc5alloc5alloc17h5b64312333991dddE(i64 %11, i64 %13)
  store ptr %14, ptr %raw_ptr, align 8
  br label %bb6

bb4:                                              ; preds = %bb1
  %15 = load i64, ptr %layout, align 8
  %16 = getelementptr inbounds i8, ptr %layout, i64 8
  %17 = load i64, ptr %16, align 8
  store i64 %15, ptr %layout1, align 8
  %18 = getelementptr inbounds i8, ptr %layout1, i64 8
  store i64 %17, ptr %18, align 8
  %self4 = load i64, ptr %layout, align 8
  store i64 %self4, ptr %_29, align 8
  %_30 = load i64, ptr %_29, align 8
  %_31 = icmp uge i64 %_30, 1
  %_32 = icmp ule i64 %_30, -9223372036854775808
  %_33 = and i1 %_31, %_32
  %19 = call ptr @__rust_alloc_zeroed(i64 %size, i64 %_30) #17
  store ptr %19, ptr %raw_ptr, align 8
  br label %bb6

bb6:                                              ; preds = %bb4, %bb5
  %ptr = load ptr, ptr %raw_ptr, align 8
  %_35 = ptrtoint ptr %ptr to i64
  %20 = icmp eq i64 %_35, 0
  br i1 %20, label %bb12, label %bb13

bb12:                                             ; preds = %bb6
  store ptr null, ptr %self3, align 8
  store ptr null, ptr %self2, align 8
  %21 = load ptr, ptr @0, align 8
  %22 = load i64, ptr getelementptr inbounds (i8, ptr @0, i64 8), align 8
  store ptr %21, ptr %_0, align 8
  %23 = getelementptr inbounds i8, ptr %_0, i64 8
  store i64 %22, ptr %23, align 8
  br label %bb7

bb13:                                             ; preds = %bb6
  br label %bb14

bb14:                                             ; preds = %bb13
; call core::ptr::non_null::NonNull<T>::new_unchecked::precondition_check
  call void @"_ZN4core3ptr8non_null16NonNull$LT$T$GT$13new_unchecked18precondition_check17h28fa90557f891562E"(ptr %ptr) #17
  br label %bb15

bb15:                                             ; preds = %bb14
  store ptr %ptr, ptr %self3, align 8
  %v = load ptr, ptr %self3, align 8
  store ptr %v, ptr %self2, align 8
  %v5 = load ptr, ptr %self2, align 8
  store ptr %v5, ptr %_11, align 8
  %ptr6 = load ptr, ptr %_11, align 8
  br label %bb16

bb16:                                             ; preds = %bb15
; call core::ptr::non_null::NonNull<T>::new_unchecked::precondition_check
  call void @"_ZN4core3ptr8non_null16NonNull$LT$T$GT$13new_unchecked18precondition_check17h28fa90557f891562E"(ptr %ptr6) #17
  br label %bb18

bb18:                                             ; preds = %bb16
  store ptr %ptr6, ptr %_0, align 8
  %24 = getelementptr inbounds i8, ptr %_0, i64 8
  store i64 %size, ptr %24, align 8
  br label %bb7
}

; alloc::raw_vec::RawVec<T,A>::current_memory
; Function Attrs: uwtable
define void @"_ZN5alloc7raw_vec19RawVec$LT$T$C$A$GT$14current_memory17hb39cdaaf7b349ddcE"(ptr sret([24 x i8]) align 8 %_0, ptr align 8 %self) unnamed_addr #3 {
start:
  %_9 = alloca [24 x i8], align 8
  br label %bb1

bb1:                                              ; preds = %start
  %_3 = load i64, ptr %self, align 8
  %0 = icmp eq i64 %_3, 0
  br i1 %0, label %bb2, label %bb4

bb2:                                              ; preds = %bb1
  br label %bb3

bb4:                                              ; preds = %bb1
  %rhs = load i64, ptr %self, align 8
  br label %bb6

bb3:                                              ; preds = %bb2
  %1 = getelementptr inbounds i8, ptr %_0, i64 8
  store i64 0, ptr %1, align 8
  br label %bb5

bb6:                                              ; preds = %bb4
; call core::num::<impl usize>::unchecked_mul::precondition_check
  call void @"_ZN4core3num23_$LT$impl$u20$usize$GT$13unchecked_mul18precondition_check17hed9b355769719d1aE"(i64 1, i64 %rhs) #17
  br label %bb7

bb7:                                              ; preds = %bb6
  %size = mul nuw i64 1, %rhs
  %2 = getelementptr inbounds i8, ptr %self, i64 8
  %self1 = load ptr, ptr %2, align 8
  store ptr %self1, ptr %_9, align 8
  %3 = getelementptr inbounds i8, ptr %_9, i64 8
  store i64 1, ptr %3, align 8
  %4 = getelementptr inbounds i8, ptr %3, i64 8
  store i64 %size, ptr %4, align 8
  call void @llvm.memcpy.p0.p0.i64(ptr align 8 %_0, ptr align 8 %_9, i64 24, i1 false)
  br label %bb5

bb5:                                              ; preds = %bb3, %bb7
  ret void
}

; alloc::raw_vec::RawVec<T,A>::try_allocate_in
; Function Attrs: uwtable
define void @"_ZN5alloc7raw_vec19RawVec$LT$T$C$A$GT$15try_allocate_in17hcf075816cf11f6b4E"(ptr sret([24 x i8]) align 8 %_0, i64 %capacity, i1 zeroext %0) unnamed_addr #3 personality ptr @rust_eh_personality {
start:
  %1 = alloca [16 x i8], align 8
  %_26 = alloca [1 x i8], align 1
  %self = alloca [16 x i8], align 8
  %result = alloca [16 x i8], align 8
  %_8 = alloca [16 x i8], align 8
  %layout = alloca [16 x i8], align 8
  %alloc = alloca [0 x i8], align 1
  %init = alloca [1 x i8], align 1
  %2 = zext i1 %0 to i8
  store i8 %2, ptr %init, align 1
  store i8 1, ptr %_26, align 1
  br label %bb1

bb1:                                              ; preds = %start
  %3 = icmp eq i64 %capacity, 0
  br i1 %3, label %bb2, label %bb4

bb2:                                              ; preds = %bb1
  store i8 0, ptr %_26, align 1
; invoke alloc::raw_vec::RawVec<T,A>::new_in
  %4 = invoke { i64, ptr } @"_ZN5alloc7raw_vec19RawVec$LT$T$C$A$GT$6new_in17h92ebfa7dc539c0caE"()
          to label %bb3 unwind label %cleanup

bb4:                                              ; preds = %bb1
; invoke core::alloc::layout::Layout::array::inner
  %5 = invoke { i64, i64 } @_ZN4core5alloc6layout6Layout5array5inner17h6f114e59bcac449fE(i64 1, i64 1, i64 %capacity)
          to label %bb21 unwind label %cleanup

bb20:                                             ; preds = %cleanup
  %6 = load i8, ptr %_26, align 1
  %7 = trunc i8 %6 to i1
  br i1 %7, label %bb19, label %bb18

cleanup:                                          ; preds = %bb2, %bb8, %bb9, %bb4
  %8 = landingpad { ptr, i32 }
          cleanup
  %9 = extractvalue { ptr, i32 } %8, 0
  %10 = extractvalue { ptr, i32 } %8, 1
  store ptr %9, ptr %1, align 8
  %11 = getelementptr inbounds i8, ptr %1, i64 8
  store i32 %10, ptr %11, align 8
  br label %bb20

bb21:                                             ; preds = %bb4
  %12 = extractvalue { i64, i64 } %5, 0
  %13 = extractvalue { i64, i64 } %5, 1
  store i64 %12, ptr %_8, align 8
  %14 = getelementptr inbounds i8, ptr %_8, i64 8
  store i64 %13, ptr %14, align 8
  %15 = load i64, ptr %_8, align 8
  %16 = icmp eq i64 %15, 0
  %_9 = select i1 %16, i64 1, i64 0
  %17 = icmp eq i64 %_9, 0
  br i1 %17, label %bb7, label %bb6

bb7:                                              ; preds = %bb21
  %layout.0 = load i64, ptr %_8, align 8
  %18 = getelementptr inbounds i8, ptr %_8, i64 8
  %layout.1 = load i64, ptr %18, align 8
  store i64 %layout.0, ptr %layout, align 8
  %19 = getelementptr inbounds i8, ptr %layout, i64 8
  store i64 %layout.1, ptr %19, align 8
  %20 = load i8, ptr %init, align 1
  %21 = trunc i8 %20 to i1
  %_14 = zext i1 %21 to i64
  %22 = icmp eq i64 %_14, 0
  br i1 %22, label %bb9, label %bb8

bb6:                                              ; preds = %bb21
  %23 = load i64, ptr @0, align 8
  %24 = load i64, ptr getelementptr inbounds (i8, ptr @0, i64 8), align 8
  %25 = getelementptr inbounds i8, ptr %_0, i64 8
  store i64 %23, ptr %25, align 8
  %26 = getelementptr inbounds i8, ptr %25, i64 8
  store i64 %24, ptr %26, align 8
  store i64 1, ptr %_0, align 8
  br label %bb16

bb9:                                              ; preds = %bb7
; invoke <alloc::alloc::Global as core::alloc::Allocator>::allocate
  %27 = invoke { ptr, i64 } @"_ZN63_$LT$alloc..alloc..Global$u20$as$u20$core..alloc..Allocator$GT$8allocate17h91bc1fada13bf885E"(ptr align 1 %alloc, i64 %layout.0, i64 %layout.1)
          to label %bb10 unwind label %cleanup

bb8:                                              ; preds = %bb7
; invoke <alloc::alloc::Global as core::alloc::Allocator>::allocate_zeroed
  %28 = invoke { ptr, i64 } @"_ZN63_$LT$alloc..alloc..Global$u20$as$u20$core..alloc..Allocator$GT$15allocate_zeroed17h372972cbf9eb04beE"(ptr align 1 %alloc, i64 %layout.0, i64 %layout.1)
          to label %bb11 unwind label %cleanup

bb10:                                             ; preds = %bb9
  %29 = extractvalue { ptr, i64 } %27, 0
  %30 = extractvalue { ptr, i64 } %27, 1
  store ptr %29, ptr %result, align 8
  %31 = getelementptr inbounds i8, ptr %result, i64 8
  store i64 %30, ptr %31, align 8
  br label %bb12

bb12:                                             ; preds = %bb11, %bb10
  %32 = load ptr, ptr %result, align 8
  %33 = ptrtoint ptr %32 to i64
  %34 = icmp eq i64 %33, 0
  %_17 = select i1 %34, i64 1, i64 0
  %35 = icmp eq i64 %_17, 0
  br i1 %35, label %bb14, label %bb13

bb11:                                             ; preds = %bb8
  %36 = extractvalue { ptr, i64 } %28, 0
  %37 = extractvalue { ptr, i64 } %28, 1
  store ptr %36, ptr %result, align 8
  %38 = getelementptr inbounds i8, ptr %result, i64 8
  store i64 %37, ptr %38, align 8
  br label %bb12

bb14:                                             ; preds = %bb12
  %ptr.0 = load ptr, ptr %result, align 8
  %39 = getelementptr inbounds i8, ptr %result, i64 8
  %ptr.1 = load i64, ptr %39, align 8
  %40 = getelementptr inbounds i8, ptr %_0, i64 8
  store i64 %capacity, ptr %40, align 8
  %41 = getelementptr inbounds i8, ptr %40, i64 8
  store ptr %ptr.0, ptr %41, align 8
  store i64 0, ptr %_0, align 8
  br label %bb15

bb13:                                             ; preds = %bb12
  store i64 %layout.0, ptr %self, align 8
  %42 = getelementptr inbounds i8, ptr %self, i64 8
  store i64 %layout.1, ptr %42, align 8
  %_19.0 = load i64, ptr %self, align 8
  %43 = getelementptr inbounds i8, ptr %self, i64 8
  %_19.1 = load i64, ptr %43, align 8
  %44 = getelementptr inbounds i8, ptr %_0, i64 8
  store i64 %_19.0, ptr %44, align 8
  %45 = getelementptr inbounds i8, ptr %44, i64 8
  store i64 %_19.1, ptr %45, align 8
  store i64 1, ptr %_0, align 8
  br label %bb16

bb15:                                             ; preds = %bb3, %bb14
  br label %bb17

bb16:                                             ; preds = %bb6, %bb13
  br label %bb17

bb17:                                             ; preds = %bb15, %bb16
  ret void

bb5:                                              ; No predecessors!
  unreachable

bb3:                                              ; preds = %bb2
  %_5.0 = extractvalue { i64, ptr } %4, 0
  %_5.1 = extractvalue { i64, ptr } %4, 1
  %46 = getelementptr inbounds i8, ptr %_0, i64 8
  store i64 %_5.0, ptr %46, align 8
  %47 = getelementptr inbounds i8, ptr %46, i64 8
  store ptr %_5.1, ptr %47, align 8
  store i64 0, ptr %_0, align 8
  br label %bb15

bb18:                                             ; preds = %bb19, %bb20
  %48 = load ptr, ptr %1, align 8
  %49 = getelementptr inbounds i8, ptr %1, i64 8
  %50 = load i32, ptr %49, align 8
  %51 = insertvalue { ptr, i32 } poison, ptr %48, 0
  %52 = insertvalue { ptr, i32 } %51, i32 %50, 1
  resume { ptr, i32 } %52

bb19:                                             ; preds = %bb20
  br label %bb18
}

; alloc::raw_vec::RawVec<T,A>::new_in
; Function Attrs: uwtable
define { i64, ptr } @"_ZN5alloc7raw_vec19RawVec$LT$T$C$A$GT$6new_in17h92ebfa7dc539c0caE"() unnamed_addr #3 {
start:
  br label %bb1

bb1:                                              ; preds = %start
; call core::ptr::non_null::NonNull<T>::new_unchecked::precondition_check
  call void @"_ZN4core3ptr8non_null16NonNull$LT$T$GT$13new_unchecked18precondition_check17h28fa90557f891562E"(ptr getelementptr (i8, ptr null, i64 1)) #17
  br label %bb3

bb3:                                              ; preds = %bb1
  ret { i64, ptr } { i64 0, ptr getelementptr (i8, ptr null, i64 1) }
}

; <alloc::alloc::Global as core::alloc::Allocator>::deallocate
; Function Attrs: inlinehint uwtable
define internal void @"_ZN63_$LT$alloc..alloc..Global$u20$as$u20$core..alloc..Allocator$GT$10deallocate17had15c1279411a5dbE"(ptr align 1 %self, ptr %ptr, i64 %0, i64 %1) unnamed_addr #2 {
start:
  %_13 = alloca [8 x i8], align 8
  %layout1 = alloca [16 x i8], align 8
  %layout = alloca [16 x i8], align 8
  store i64 %0, ptr %layout, align 8
  %2 = getelementptr inbounds i8, ptr %layout, i64 8
  store i64 %1, ptr %2, align 8
  %3 = getelementptr inbounds i8, ptr %layout, i64 8
  %_4 = load i64, ptr %3, align 8
  %4 = icmp eq i64 %_4, 0
  br i1 %4, label %bb2, label %bb1

bb2:                                              ; preds = %bb1, %start
  ret void

bb1:                                              ; preds = %start
  %5 = load i64, ptr %layout, align 8
  %6 = getelementptr inbounds i8, ptr %layout, i64 8
  %7 = load i64, ptr %6, align 8
  store i64 %5, ptr %layout1, align 8
  %8 = getelementptr inbounds i8, ptr %layout1, i64 8
  store i64 %7, ptr %8, align 8
  %self2 = load i64, ptr %layout, align 8
  store i64 %self2, ptr %_13, align 8
  %_14 = load i64, ptr %_13, align 8
  %_15 = icmp uge i64 %_14, 1
  %_16 = icmp ule i64 %_14, -9223372036854775808
  %_17 = and i1 %_15, %_16
  call void @__rust_dealloc(ptr %ptr, i64 %_4, i64 %_14) #17
  br label %bb2
}

; <alloc::alloc::Global as core::alloc::Allocator>::allocate_zeroed
; Function Attrs: inlinehint uwtable
define internal { ptr, i64 } @"_ZN63_$LT$alloc..alloc..Global$u20$as$u20$core..alloc..Allocator$GT$15allocate_zeroed17h372972cbf9eb04beE"(ptr align 1 %self, i64 %layout.0, i64 %layout.1) unnamed_addr #2 {
start:
; call alloc::alloc::Global::alloc_impl
  %0 = call { ptr, i64 } @_ZN5alloc5alloc6Global10alloc_impl17hd49f39c4ed010c18E(ptr align 1 %self, i64 %layout.0, i64 %layout.1, i1 zeroext true)
  %_0.0 = extractvalue { ptr, i64 } %0, 0
  %_0.1 = extractvalue { ptr, i64 } %0, 1
  %1 = insertvalue { ptr, i64 } poison, ptr %_0.0, 0
  %2 = insertvalue { ptr, i64 } %1, i64 %_0.1, 1
  ret { ptr, i64 } %2
}

; <alloc::alloc::Global as core::alloc::Allocator>::allocate
; Function Attrs: inlinehint uwtable
define internal { ptr, i64 } @"_ZN63_$LT$alloc..alloc..Global$u20$as$u20$core..alloc..Allocator$GT$8allocate17h91bc1fada13bf885E"(ptr align 1 %self, i64 %layout.0, i64 %layout.1) unnamed_addr #2 {
start:
; call alloc::alloc::Global::alloc_impl
  %0 = call { ptr, i64 } @_ZN5alloc5alloc6Global10alloc_impl17hd49f39c4ed010c18E(ptr align 1 %self, i64 %layout.0, i64 %layout.1, i1 zeroext false)
  %_0.0 = extractvalue { ptr, i64 } %0, 0
  %_0.1 = extractvalue { ptr, i64 } %0, 1
  %1 = insertvalue { ptr, i64 } poison, ptr %_0.0, 0
  %2 = insertvalue { ptr, i64 } %1, i64 %_0.1, 1
  ret { ptr, i64 } %2
}

; <alloc::vec::Vec<T,A> as core::ops::drop::Drop>::drop
; Function Attrs: uwtable
define void @"_ZN70_$LT$alloc..vec..Vec$LT$T$C$A$GT$$u20$as$u20$core..ops..drop..Drop$GT$4drop17h10f59343c94eb41aE"(ptr align 8 %self) unnamed_addr #3 {
start:
  %0 = getelementptr inbounds i8, ptr %self, i64 8
  %self1 = load ptr, ptr %0, align 8
  %1 = getelementptr inbounds i8, ptr %self, i64 16
  %len = load i64, ptr %1, align 8
  ret void
}

; <alloc::raw_vec::RawVec<T,A> as core::ops::drop::Drop>::drop
; Function Attrs: uwtable
define void @"_ZN77_$LT$alloc..raw_vec..RawVec$LT$T$C$A$GT$$u20$as$u20$core..ops..drop..Drop$GT$4drop17h219e23a947654b0cE"(ptr align 8 %self) unnamed_addr #3 {
start:
  %_2 = alloca [24 x i8], align 8
; call alloc::raw_vec::RawVec<T,A>::current_memory
  call void @"_ZN5alloc7raw_vec19RawVec$LT$T$C$A$GT$14current_memory17hb39cdaaf7b349ddcE"(ptr sret([24 x i8]) align 8 %_2, ptr align 8 %self)
  %0 = getelementptr inbounds i8, ptr %_2, i64 8
  %1 = load i64, ptr %0, align 8
  %2 = icmp eq i64 %1, 0
  %_4 = select i1 %2, i64 0, i64 1
  %3 = icmp eq i64 %_4, 1
  br i1 %3, label %bb2, label %bb4

bb2:                                              ; preds = %start
  %ptr = load ptr, ptr %_2, align 8
  %4 = getelementptr inbounds i8, ptr %_2, i64 8
  %layout.0 = load i64, ptr %4, align 8
  %5 = getelementptr inbounds i8, ptr %4, i64 8
  %layout.1 = load i64, ptr %5, align 8
  %_7 = getelementptr inbounds i8, ptr %self, i64 16
; call <alloc::alloc::Global as core::alloc::Allocator>::deallocate
  call void @"_ZN63_$LT$alloc..alloc..Global$u20$as$u20$core..alloc..Allocator$GT$10deallocate17had15c1279411a5dbE"(ptr align 1 %_7, ptr %ptr, i64 %layout.0, i64 %layout.1)
  br label %bb4

bb4:                                              ; preds = %bb2, %start
  ret void

bb5:                                              ; No predecessors!
  unreachable
}

; probe1::probe
; Function Attrs: uwtable
define void @_ZN6probe15probe17h1f02593edc111963E() unnamed_addr #3 {
start:
  %_3.i = alloca [16 x i8], align 8
  %_6 = alloca [16 x i8], align 8
  %_5 = alloca [16 x i8], align 8
  %_3 = alloca [48 x i8], align 8
  %res = alloca [24 x i8], align 8
  %_1 = alloca [24 x i8], align 8
  store ptr @alloc_53973d2fe29b4adba8bb7390b5678745, ptr %_3.i, align 8
  %0 = getelementptr inbounds i8, ptr %_3.i, i64 8
  store ptr @"_ZN4core3fmt3num3imp55_$LT$impl$u20$core..fmt..LowerExp$u20$for$u20$isize$GT$3fmt17he90f87731d7e27dfE", ptr %0, align 8
  call void @llvm.memcpy.p0.p0.i64(ptr align 8 %_6, ptr align 8 %_3.i, i64 16, i1 false)
  %1 = getelementptr inbounds [1 x %"core::fmt::rt::Argument<'_>"], ptr %_5, i64 0, i64 0
  call void @llvm.memcpy.p0.p0.i64(ptr align 8 %1, ptr align 8 %_6, i64 16, i1 false)
; call core::fmt::Arguments::new_v1
  call void @_ZN4core3fmt9Arguments6new_v117h583112e2d7a964f5E(ptr sret([48 x i8]) align 8 %_3, ptr align 8 @alloc_b99730e73100e73a81f4fbfe74b3821d, ptr align 8 %_5)
; call alloc::fmt::format
  call void @_ZN5alloc3fmt6format17h8581d2dc5b75d3bfE(ptr sret([24 x i8]) align 8 %res, ptr align 8 %_3)
  call void @llvm.memcpy.p0.p0.i64(ptr align 8 %_1, ptr align 8 %res, i64 24, i1 false)
; call core::ptr::drop_in_place<alloc::string::String>
  call void @"_ZN4core3ptr42drop_in_place$LT$alloc..string..String$GT$17h8b000a7e7425fb26E"(ptr align 8 %_1)
  ret void
}

; Function Attrs: uwtable
declare i32 @rust_eh_personality(i32, i32, i64, ptr, ptr) unnamed_addr #3

; Function Attrs: nocallback nofree nosync nounwind speculatable willreturn memory(none)
declare i64 @llvm.ctpop.i64(i64) #4

; core::panicking::panic_cannot_unwind
; Function Attrs: cold noinline noreturn nounwind uwtable
declare void @_ZN4core9panicking19panic_cannot_unwind17he766a33bd515ac66E() unnamed_addr #5

; core::panicking::panic_nounwind
; Function Attrs: cold noinline noreturn nounwind uwtable
declare void @_ZN4core9panicking14panic_nounwind17h0ca77474896e89daE(ptr align 1, i64) unnamed_addr #5

; core::panicking::panic_fmt
; Function Attrs: cold noinline noreturn uwtable
declare void @_ZN4core9panicking9panic_fmt17hf3031f82c202a80dE(ptr align 8, ptr align 8) unnamed_addr #6

; core::fmt::num::imp::<impl core::fmt::LowerExp for isize>::fmt
; Function Attrs: uwtable
declare zeroext i1 @"_ZN4core3fmt3num3imp55_$LT$impl$u20$core..fmt..LowerExp$u20$for$u20$isize$GT$3fmt17he90f87731d7e27dfE"(ptr align 8, ptr align 8) unnamed_addr #3

; Function Attrs: nocallback nofree nounwind willreturn memory(argmem: readwrite)
declare void @llvm.memcpy.p0.p0.i64(ptr noalias nocapture writeonly, ptr noalias nocapture readonly, i64, i1 immarg) #7

; Function Attrs: nocallback nofree nosync nounwind speculatable willreturn memory(none)
declare { i64, i1 } @llvm.umul.with.overflow.i64(i64, i64) #4

; core::panicking::panic_in_cleanup
; Function Attrs: cold noinline noreturn nounwind uwtable
declare void @_ZN4core9panicking16panic_in_cleanup17h1ce87a78bfb0c4c7E() unnamed_addr #5

; core::panicking::panic_const::panic_const_div_by_zero
; Function Attrs: cold noinline noreturn uwtable
declare void @_ZN4core9panicking11panic_const23panic_const_div_by_zero17h6a572ca1aae6312bE(ptr align 8) unnamed_addr #6

; Function Attrs: nocallback nofree nosync nounwind willreturn memory(none)
declare i1 @llvm.expect.i1(i1, i1) #8

; alloc::raw_vec::handle_error
; Function Attrs: cold noreturn uwtable
declare void @_ZN5alloc7raw_vec12handle_error17h7f9cd8199ddef69cE(i64, i64) unnamed_addr #9

; alloc::fmt::format::format_inner
; Function Attrs: uwtable
declare void @_ZN5alloc3fmt6format12format_inner17h457d6f4cc84042e9E(ptr sret([24 x i8]) align 8, ptr align 8) unnamed_addr #3

; Function Attrs: nounwind allockind("alloc,uninitialized,aligned") allocsize(0) uwtable
declare noalias ptr @__rust_alloc(i64, i64 allocalign) unnamed_addr #10

; Function Attrs: nounwind allockind("alloc,zeroed,aligned") allocsize(0) uwtable
declare noalias ptr @__rust_alloc_zeroed(i64, i64 allocalign) unnamed_addr #11

; Function Attrs: nounwind allockind("free") uwtable
declare void @__rust_dealloc(ptr allocptr, i64, i64) unnamed_addr #12

attributes #0 = { inlinehint nounwind uwtable "frame-pointer"="non-leaf" "probe-stack"="inline-asm" "target-cpu"="apple-m1" }
attributes #1 = { nounwind uwtable "frame-pointer"="non-leaf" "probe-stack"="inline-asm" "target-cpu"="apple-m1" }
attributes #2 = { inlinehint uwtable "frame-pointer"="non-leaf" "probe-stack"="inline-asm" "target-cpu"="apple-m1" }
attributes #3 = { uwtable "frame-pointer"="non-leaf" "probe-stack"="inline-asm" "target-cpu"="apple-m1" }
attributes #4 = { nocallback nofree nosync nounwind speculatable willreturn memory(none) }
attributes #5 = { cold noinline noreturn nounwind uwtable "frame-pointer"="non-leaf" "probe-stack"="inline-asm" "target-cpu"="apple-m1" }
attributes #6 = { cold noinline noreturn uwtable "frame-pointer"="non-leaf" "probe-stack"="inline-asm" "target-cpu"="apple-m1" }
attributes #7 = { nocallback nofree nounwind willreturn memory(argmem: readwrite) }
attributes #8 = { nocallback nofree nosync nounwind willreturn memory(none) }
attributes #9 = { cold noreturn uwtable "frame-pointer"="non-leaf" "probe-stack"="inline-asm" "target-cpu"="apple-m1" }
attributes #10 = { nounwind allockind("alloc,uninitialized,aligned") allocsize(0) uwtable "alloc-family"="__rust_alloc" "frame-pointer"="non-leaf" "probe-stack"="inline-asm" "target-cpu"="apple-m1" }
attributes #11 = { nounwind allockind("alloc,zeroed,aligned") allocsize(0) uwtable "alloc-family"="__rust_alloc" "frame-pointer"="non-leaf" "probe-stack"="inline-asm" "target-cpu"="apple-m1" }
attributes #12 = { nounwind allockind("free") uwtable "alloc-family"="__rust_alloc" "frame-pointer"="non-leaf" "probe-stack"="inline-asm" "target-cpu"="apple-m1" }
attributes #13 = { noreturn }
attributes #14 = { noreturn nounwind }
attributes #15 = { cold noreturn nounwind }
attributes #16 = { cold }
attributes #17 = { nounwind }

!llvm.module.flags = !{!0}
!llvm.ident = !{!1}

!0 = !{i32 8, !"PIC Level", i32 2}
!1 = !{!"rustc version 1.80.0 (051478957 2024-07-21)"}
